target datalayout = "e-m:e-p270:32:32-p271:32:32-p272:64:64-i64:64-i128:128-f80:128-n8:16:32:64-S128"
target triple = "x86_64-pc-linux-gnu"

%struct.TT_CMapRec_ = type { %struct.FT_CMapRec_, ptr, i32 }
%struct.FT_CMapRec_ = type { %struct.FT_CharMapRec_, ptr }
%struct.FT_CharMapRec_ = type { ptr, i32, i16, i16 }
%struct.FT_FaceRec_ = type { i64, i64, i64, i64, i64, ptr, ptr, i32, ptr, i32, ptr, %struct.FT_Generic_, %struct.FT_BBox_, i16, i16, i16, i16, i16, i16, i16, i16, ptr, ptr, ptr, ptr, ptr, ptr, %struct.FT_ListRec_, %struct.FT_Generic_, ptr, ptr }
%struct.FT_BBox_ = type { i64, i64, i64, i64 }
%struct.FT_ListRec_ = type { ptr, ptr }
%struct.FT_Generic_ = type { ptr, ptr }

; Function Attrs: nounwind uwtable
define internal i32 @tt_cmap8_char_next(ptr noundef %0, ptr noundef %1) #0 {
  %3 = alloca i32, align 4
  %4 = alloca ptr, align 8
  %5 = alloca ptr, align 8
  %6 = alloca ptr, align 8
  %7 = alloca ptr, align 8
  %8 = alloca i32, align 4
  %9 = alloca i32, align 4
  %10 = alloca i32, align 4
  %11 = alloca ptr, align 8
  %12 = alloca ptr, align 8
  %13 = alloca i32, align 4
  %14 = alloca i32, align 4
  %15 = alloca i32, align 4
  %16 = alloca i32, align 4
  store ptr %0, ptr %4, align 8
  store ptr %1, ptr %5, align 8
  %17 = load ptr, ptr %4, align 8
  store ptr %17, ptr %6, align 8
  %18 = load ptr, ptr %4, align 8
  %19 = getelementptr inbounds %struct.FT_CMapRec_, ptr %18, i32 0, i32 0
  %20 = getelementptr inbounds %struct.FT_CharMapRec_, ptr %19, i32 0, i32 0
  %21 = load ptr, ptr %20, align 8
  store ptr %21, ptr %7, align 8
  store i32 0, ptr %8, align 4
  store i32 0, ptr %10, align 4
  %22 = load ptr, ptr %6, align 8
  %23 = getelementptr inbounds %struct.TT_CMapRec_, ptr %22, i32 0, i32 1
  %24 = load ptr, ptr %23, align 8
  store ptr %24, ptr %11, align 8
  %25 = load ptr, ptr %11, align 8
  %26 = getelementptr inbounds i8, ptr %25, i64 8204
  store ptr %26, ptr %12, align 8
  %27 = load ptr, ptr %12, align 8
  %28 = getelementptr inbounds i8, ptr %27, i64 4
  store ptr %28, ptr %12, align 8
  %29 = load ptr, ptr %12, align 8
  %30 = getelementptr inbounds i8, ptr %29, i64 -4
  %31 = getelementptr inbounds i8, ptr %30, i64 0
  %32 = load i8, ptr %31, align 1
  %33 = zext i8 %32 to i32
  %34 = shl i32 %33, 24
  %35 = load ptr, ptr %12, align 8
  %36 = getelementptr inbounds i8, ptr %35, i64 -4
  %37 = getelementptr inbounds i8, ptr %36, i64 1
  %38 = load i8, ptr %37, align 1
  %39 = zext i8 %38 to i32
  %40 = shl i32 %39, 16
  %41 = or i32 %34, %40
  %42 = load ptr, ptr %12, align 8
  %43 = getelementptr inbounds i8, ptr %42, i64 -4
  %44 = getelementptr inbounds i8, ptr %43, i64 2
  %45 = load i8, ptr %44, align 1
  %46 = zext i8 %45 to i32
  %47 = shl i32 %46, 8
  %48 = or i32 %41, %47
  %49 = load ptr, ptr %12, align 8
  %50 = getelementptr inbounds i8, ptr %49, i64 -4
  %51 = getelementptr inbounds i8, ptr %50, i64 3
  %52 = load i8, ptr %51, align 1
  %53 = zext i8 %52 to i32
  %54 = shl i32 %53, 0
  %55 = or i32 %48, %54
  store i32 %55, ptr %13, align 4
  %56 = load ptr, ptr %5, align 8
  %57 = load i32, ptr %56, align 4
  %58 = zext i32 %57 to i64
  %59 = icmp uge i64 %58, 4294967295
  br i1 %59, label %60, label %61

60:                                               ; preds = %2
  store i32 0, ptr %3, align 4
  br label %212

61:                                               ; preds = %2
  %62 = load ptr, ptr %5, align 8
  %63 = load i32, ptr %62, align 4
  %64 = add i32 %63, 1
  store i32 %64, ptr %9, align 4
  %65 = load ptr, ptr %11, align 8
  %66 = getelementptr inbounds i8, ptr %65, i64 8208
  store ptr %66, ptr %12, align 8
  br label %67

67:                                               ; preds = %205, %61
  %68 = load i32, ptr %13, align 4
  %69 = icmp ugt i32 %68, 0
  br i1 %69, label %70, label %208

70:                                               ; preds = %67
  %71 = load ptr, ptr %12, align 8
  %72 = getelementptr inbounds i8, ptr %71, i64 4
  store ptr %72, ptr %12, align 8
  %73 = load ptr, ptr %12, align 8
  %74 = getelementptr inbounds i8, ptr %73, i64 -4
  %75 = getelementptr inbounds i8, ptr %74, i64 0
  %76 = load i8, ptr %75, align 1
  %77 = zext i8 %76 to i32
  %78 = shl i32 %77, 24
  %79 = load ptr, ptr %12, align 8
  %80 = getelementptr inbounds i8, ptr %79, i64 -4
  %81 = getelementptr inbounds i8, ptr %80, i64 1
  %82 = load i8, ptr %81, align 1
  %83 = zext i8 %82 to i32
  %84 = shl i32 %83, 16
  %85 = or i32 %78, %84
  %86 = load ptr, ptr %12, align 8
  %87 = getelementptr inbounds i8, ptr %86, i64 -4
  %88 = getelementptr inbounds i8, ptr %87, i64 2
  %89 = load i8, ptr %88, align 1
  %90 = zext i8 %89 to i32
  %91 = shl i32 %90, 8
  %92 = or i32 %85, %91
  %93 = load ptr, ptr %12, align 8
  %94 = getelementptr inbounds i8, ptr %93, i64 -4
  %95 = getelementptr inbounds i8, ptr %94, i64 3
  %96 = load i8, ptr %95, align 1
  %97 = zext i8 %96 to i32
  %98 = shl i32 %97, 0
  %99 = or i32 %92, %98
  store i32 %99, ptr %14, align 4
  %100 = load ptr, ptr %12, align 8
  %101 = getelementptr inbounds i8, ptr %100, i64 4
  store ptr %101, ptr %12, align 8
  %102 = load ptr, ptr %12, align 8
  %103 = getelementptr inbounds i8, ptr %102, i64 -4
  %104 = getelementptr inbounds i8, ptr %103, i64 0
  %105 = load i8, ptr %104, align 1
  %106 = zext i8 %105 to i32
  %107 = shl i32 %106, 24
  %108 = load ptr, ptr %12, align 8
  %109 = getelementptr inbounds i8, ptr %108, i64 -4
  %110 = getelementptr inbounds i8, ptr %109, i64 1
  %111 = load i8, ptr %110, align 1
  %112 = zext i8 %111 to i32
  %113 = shl i32 %112, 16
  %114 = or i32 %107, %113
  %115 = load ptr, ptr %12, align 8
  %116 = getelementptr inbounds i8, ptr %115, i64 -4
  %117 = getelementptr inbounds i8, ptr %116, i64 2
  %118 = load i8, ptr %117, align 1
  %119 = zext i8 %118 to i32
  %120 = shl i32 %119, 8
  %121 = or i32 %114, %120
  %122 = load ptr, ptr %12, align 8
  %123 = getelementptr inbounds i8, ptr %122, i64 -4
  %124 = getelementptr inbounds i8, ptr %123, i64 3
  %125 = load i8, ptr %124, align 1
  %126 = zext i8 %125 to i32
  %127 = shl i32 %126, 0
  %128 = or i32 %121, %127
  store i32 %128, ptr %15, align 4
  %129 = load ptr, ptr %12, align 8
  %130 = getelementptr inbounds i8, ptr %129, i64 4
  store ptr %130, ptr %12, align 8
  %131 = load ptr, ptr %12, align 8
  %132 = getelementptr inbounds i8, ptr %131, i64 -4
  %133 = getelementptr inbounds i8, ptr %132, i64 0
  %134 = load i8, ptr %133, align 1
  %135 = zext i8 %134 to i32
  %136 = shl i32 %135, 24
  %137 = load ptr, ptr %12, align 8
  %138 = getelementptr inbounds i8, ptr %137, i64 -4
  %139 = getelementptr inbounds i8, ptr %138, i64 1
  %140 = load i8, ptr %139, align 1
  %141 = zext i8 %140 to i32
  %142 = shl i32 %141, 16
  %143 = or i32 %136, %142
  %144 = load ptr, ptr %12, align 8
  %145 = getelementptr inbounds i8, ptr %144, i64 -4
  %146 = getelementptr inbounds i8, ptr %145, i64 2
  %147 = load i8, ptr %146, align 1
  %148 = zext i8 %147 to i32
  %149 = shl i32 %148, 8
  %150 = or i32 %143, %149
  %151 = load ptr, ptr %12, align 8
  %152 = getelementptr inbounds i8, ptr %151, i64 -4
  %153 = getelementptr inbounds i8, ptr %152, i64 3
  %154 = load i8, ptr %153, align 1
  %155 = zext i8 %154 to i32
  %156 = shl i32 %155, 0
  %157 = or i32 %150, %156
  store i32 %157, ptr %16, align 4
  %158 = load i32, ptr %9, align 4
  %159 = load i32, ptr %14, align 4
  %160 = icmp ult i32 %158, %159
  br i1 %160, label %161, label %163

161:                                              ; preds = %70
  %162 = load i32, ptr %14, align 4
  store i32 %162, ptr %9, align 4
  br label %163

163:                                              ; preds = %161, %70
  br label %164

164:                                              ; preds = %191, %163
  %165 = load i32, ptr %9, align 4
  %166 = load i32, ptr %15, align 4
  %167 = icmp ule i32 %165, %166
  br i1 %167, label %168, label %204

168:                                              ; preds = %164
  %169 = load i32, ptr %16, align 4
  %170 = zext i32 %169 to i64
  %171 = load i32, ptr %9, align 4
  %172 = load i32, ptr %14, align 4
  %173 = sub i32 %171, %172
  %174 = zext i32 %173 to i64
  %175 = sub i64 4294967295, %174
  %176 = icmp ugt i64 %170, %175
  br i1 %176, label %177, label %178

177:                                              ; preds = %168
  br label %205

178:                                              ; preds = %168
  %179 = load i32, ptr %16, align 4
  %180 = load i32, ptr %9, align 4
  %181 = load i32, ptr %14, align 4
  %182 = sub i32 %180, %181
  %183 = add i32 %179, %182
  store i32 %183, ptr %10, align 4
  %184 = load i32, ptr %10, align 4
  %185 = icmp eq i32 %184, 0
  br i1 %185, label %186, label %194

186:                                              ; preds = %178
  %187 = load i32, ptr %9, align 4
  %188 = zext i32 %187 to i64
  %189 = icmp uge i64 %188, 4294967295
  br i1 %189, label %190, label %191

190:                                              ; preds = %186
  br label %208

191:                                              ; preds = %186
  %192 = load i32, ptr %9, align 4
  %193 = add i32 %192, 1
  store i32 %193, ptr %9, align 4
  br label %164

194:                                              ; preds = %178
  %195 = load i32, ptr %10, align 4
  %196 = load ptr, ptr %7, align 8
  %197 = getelementptr inbounds %struct.FT_FaceRec_, ptr %196, i32 0, i32 4
  %198 = load i64, ptr %197, align 8
  %199 = trunc i64 %198 to i32
  %200 = icmp uge i32 %195, %199
  br i1 %200, label %201, label %202

201:                                              ; preds = %194
  store i32 0, ptr %10, align 4
  br label %205

202:                                              ; preds = %194
  %203 = load i32, ptr %9, align 4
  store i32 %203, ptr %8, align 4
  br label %208

204:                                              ; preds = %164
  br label %205

205:                                              ; preds = %204, %201, %177
  %206 = load i32, ptr %13, align 4
  %207 = add i32 %206, -1
  store i32 %207, ptr %13, align 4
  br label %67, !llvm.loop !17

208:                                              ; preds = %202, %190, %67
  %209 = load i32, ptr %8, align 4
  %210 = load ptr, ptr %5, align 8
  store i32 %209, ptr %210, align 4
  %211 = load i32, ptr %10, align 4
  store i32 %211, ptr %3, align 4
  br label %212

212:                                              ; preds = %208, %60
  %213 = load i32, ptr %3, align 4
  ret i32 %213
}