; Function Attrs: nofree norecurse nosync nounwind memory(read, argmem: readwrite, inaccessiblemem: none) uwtable
define internal i32 @tt_cmap8_char_next(ptr nocapture noundef readonly %0, ptr nocapture noundef %1) #3 {
  %3 = load ptr, ptr %0, align 8
  %4 = load i32, ptr %1, align 4
  %5 = icmp eq i32 %4, -1
  br i1 %5, label %103, label %6

6:                                                ; preds = %2
  %7 = getelementptr inbounds i8, ptr %0, i64 24
  %8 = load ptr, ptr %7, align 8
  %9 = getelementptr inbounds i8, ptr %8, i64 8204
  %10 = load i8, ptr %9, align 1
  %11 = zext i8 %10 to i32
  %12 = shl nuw i32 %11, 24
  %13 = getelementptr inbounds i8, ptr %8, i64 8205
  %14 = load i8, ptr %13, align 1
  %15 = zext i8 %14 to i32
  %16 = shl nuw nsw i32 %15, 16
  %17 = or disjoint i32 %16, %12
  %18 = getelementptr inbounds i8, ptr %8, i64 8206
  %19 = load i8, ptr %18, align 1
  %20 = zext i8 %19 to i32
  %21 = shl nuw nsw i32 %20, 8
  %22 = or disjoint i32 %17, %21
  %23 = getelementptr inbounds i8, ptr %8, i64 8207
  %24 = load i8, ptr %23, align 1
  %25 = zext i8 %24 to i32
  %26 = or disjoint i32 %22, %25
  %.not71 = icmp eq i32 %26, 0
  br i1 %.not71, label %.loopexit61, label %.lr.ph75

.lr.ph75:                                         ; preds = %6
  %27 = getelementptr inbounds i8, ptr %8, i64 8208
  %28 = add nuw i32 %4, 1
  %29 = getelementptr inbounds i8, ptr %3, i64 32
  br label %30

30:                                               ; preds = %.lr.ph75, %.loopexit
  %.05074 = phi i32 [ %28, %.lr.ph75 ], [ %.265, %.loopexit ]
  %.05173 = phi i32 [ %26, %.lr.ph75 ], [ %102, %.loopexit ]
  %.05272 = phi ptr [ %27, %.lr.ph75 ], [ %66, %.loopexit ]
  %31 = load i8, ptr %.05272, align 1
  %32 = zext i8 %31 to i32
  %33 = shl nuw i32 %32, 24
  %34 = getelementptr inbounds i8, ptr %.05272, i64 1
  %35 = load i8, ptr %34, align 1
  %36 = zext i8 %35 to i32
  %37 = shl nuw nsw i32 %36, 16
  %38 = or disjoint i32 %37, %33
  %39 = getelementptr inbounds i8, ptr %.05272, i64 2
  %40 = load i8, ptr %39, align 1
  %41 = zext i8 %40 to i32
  %42 = shl nuw nsw i32 %41, 8
  %43 = or disjoint i32 %38, %42
  %44 = getelementptr inbounds i8, ptr %.05272, i64 3
  %45 = load i8, ptr %44, align 1
  %46 = zext i8 %45 to i32
  %47 = or disjoint i32 %43, %46
  %48 = getelementptr inbounds i8, ptr %.05272, i64 4
  %49 = load i8, ptr %48, align 1
  %50 = zext i8 %49 to i32
  %51 = shl nuw i32 %50, 24
  %52 = getelementptr inbounds i8, ptr %.05272, i64 5
  %53 = load i8, ptr %52, align 1
  %54 = zext i8 %53 to i32
  %55 = shl nuw nsw i32 %54, 16
  %56 = or disjoint i32 %55, %51
  %57 = getelementptr inbounds i8, ptr %.05272, i64 6
  %58 = load i8, ptr %57, align 1
  %59 = zext i8 %58 to i32
  %60 = shl nuw nsw i32 %59, 8
  %61 = or disjoint i32 %56, %60
  %62 = getelementptr inbounds i8, ptr %.05272, i64 7
  %63 = load i8, ptr %62, align 1
  %64 = zext i8 %63 to i32
  %65 = or disjoint i32 %61, %64
  %66 = getelementptr inbounds i8, ptr %.05272, i64 12
  %67 = getelementptr inbounds i8, ptr %.05272, i64 8
  %68 = load i8, ptr %67, align 1
  %69 = zext i8 %68 to i32
  %70 = shl nuw i32 %69, 24
  %71 = getelementptr inbounds i8, ptr %.05272, i64 9
  %72 = load i8, ptr %71, align 1
  %73 = zext i8 %72 to i32
  %74 = shl nuw nsw i32 %73, 16
  %75 = or disjoint i32 %74, %70
  %76 = getelementptr inbounds i8, ptr %.05272, i64 10
  %77 = load i8, ptr %76, align 1
  %78 = zext i8 %77 to i32
  %79 = shl nuw nsw i32 %78, 8
  %80 = or disjoint i32 %75, %79
  %81 = getelementptr inbounds i8, ptr %.05272, i64 11
  %82 = load i8, ptr %81, align 1
  %83 = zext i8 %82 to i32
  %84 = or disjoint i32 %80, %83
  %spec.select = tail call i32 @llvm.umax.i32(i32 %.05074, i32 %47)
  %.not5967 = icmp ugt i32 %spec.select, %65
  br i1 %.not5967, label %.loopexit, label %.lr.ph.preheader

.lr.ph.preheader:                                 ; preds = %30
  %85 = or disjoint i32 %51, %55
  %86 = or disjoint i32 %85, %60
  %87 = or disjoint i32 %86, 1
  %88 = add i32 %87, %64
  br label %.lr.ph

.lr.ph:                                           ; preds = %.lr.ph.preheader, %97
  %.268 = phi i32 [ %98, %97 ], [ %spec.select, %.lr.ph.preheader ]
  %89 = sub i32 %.268, %47
  %90 = xor i32 %89, -1
  %91 = icmp ugt i32 %84, %90
  br i1 %91, label %.loopexit, label %92

92:                                               ; preds = %.lr.ph
  %93 = add i32 %89, %84
  %94 = icmp eq i32 %93, 0
  br i1 %94, label %95, label %99

95:                                               ; preds = %92
  %96 = icmp eq i32 %.268, -1
  br i1 %96, label %.loopexit61, label %97

97:                                               ; preds = %95
  %98 = add nuw i32 %.268, 1
  %.not59.not = icmp ult i32 %.268, %65
  br i1 %.not59.not, label %.lr.ph, label %.loopexit

99:                                               ; preds = %92
  %100 = load i64, ptr %29, align 8
  %101 = trunc i64 %100 to i32
  %.not60 = icmp ult i32 %93, %101
  br i1 %.not60, label %.loopexit61, label %.loopexit

.loopexit:                                        ; preds = %.lr.ph, %97, %30, %99
  %.265 = phi i32 [ %.268, %99 ], [ %spec.select, %30 ], [ %.268, %.lr.ph ], [ %88, %97 ]
  %102 = add i32 %.05173, -1
  %.not = icmp eq i32 %102, 0
  br i1 %.not, label %.loopexit61, label %30, !llvm.loop !16

.loopexit61:                                      ; preds = %.loopexit, %99, %95, %6
  %.3 = phi i32 [ 0, %6 ], [ 0, %95 ], [ 0, %.loopexit ], [ %93, %99 ]
  %.049 = phi i32 [ 0, %6 ], [ 0, %95 ], [ 0, %.loopexit ], [ %.268, %99 ]
  store i32 %.049, ptr %1, align 4
  br label %103

103:                                              ; preds = %2, %.loopexit61
  %.0 = phi i32 [ %.3, %.loopexit61 ], [ 0, %2 ]
  ret i32 %.0
}